; Function Attrs: mustprogress nofree norecurse nosync nounwind willreturn memory(read, inaccessiblemem: none) uwtable
define dso_local noundef zeroext i1 @_ZN4node15LibuvStreamWrap9IsIPCPipeEv(ptr nocapture noundef nonnull readonly align 8 dereferenceable(160) %this) unnamed_addr #8 align 2 {
entry:
  %stream_.i.i.i = getelementptr inbounds i8, ptr %this, i64 152
  %0 = load ptr, ptr %stream_.i.i.i, align 8
  %type.i.i = getelementptr inbounds i8, ptr %0, i64 16
  %1 = load i32, ptr %type.i.i, align 8
  %cmp.i.i = icmp eq i32 %1, 7
  br i1 %cmp.i.i, label %land.rhs.i, label %_ZNK4node15LibuvStreamWrap17is_named_pipe_ipcEv.exit

land.rhs.i:                                       ; preds = %entry
  %ipc.i = getelementptr inbounds i8, ptr %0, i64 248
  %2 = load i32, ptr %ipc.i, align 8
  %cmp.i = icmp ne i32 %2, 0
  br label %_ZNK4node15LibuvStreamWrap17is_named_pipe_ipcEv.exit

_ZNK4node15LibuvStreamWrap17is_named_pipe_ipcEv.exit: ; preds = %entry, %land.rhs.i
  %3 = phi i1 [ false, %entry ], [ %cmp.i, %land.rhs.i ]
  ret i1 %3
}